target datalayout = "e-m:e-p270:32:32-p271:32:32-p272:64:64-i64:64-i128:128-f80:128-n8:16:32:64-S128"
target triple = "x86_64-pc-linux-gnu"

; Function Attrs: nounwind uwtable
define i64 @BIO_debug_callback(ptr noundef %0, i32 noundef %1, ptr noundef %2, i32 noundef %3, i64 noundef %4, i64 noundef %5) #0 {
  %7 = alloca ptr, align 8
  %8 = alloca i32, align 4
  %9 = alloca ptr, align 8
  %10 = alloca i32, align 4
  %11 = alloca i64, align 8
  %12 = alloca i64, align 8
  %13 = alloca i64, align 8
  store ptr %0, ptr %7, align 8, !tbaa !3
  store i32 %1, ptr %8, align 4, !tbaa !8
  store ptr %2, ptr %9, align 8, !tbaa !10
  store i32 %3, ptr %10, align 4, !tbaa !8
  store i64 %4, ptr %11, align 8, !tbaa !12
  store i64 %5, ptr %12, align 8, !tbaa !12
  call void @llvm.lifetime.start.p0(i64 8, ptr %13) #4
  store i64 0, ptr %13, align 8, !tbaa !12
  %14 = load i64, ptr %12, align 8, !tbaa !12
  %15 = icmp sgt i64 %14, 0
  br i1 %15, label %16, label %18

16:                                               ; preds = %6
  %17 = load i64, ptr %12, align 8, !tbaa !12
  store i64 %17, ptr %13, align 8, !tbaa !12
  br label %18

18:                                               ; preds = %16, %6
  %19 = load ptr, ptr %7, align 8, !tbaa !3
  %20 = load i32, ptr %8, align 4, !tbaa !8
  %21 = load ptr, ptr %9, align 8, !tbaa !10
  %22 = load i32, ptr %10, align 4, !tbaa !8
  %23 = sext i32 %22 to i64
  %24 = load i32, ptr %10, align 4, !tbaa !8
  %25 = load i64, ptr %11, align 8, !tbaa !12
  %26 = load i64, ptr %12, align 8, !tbaa !12
  %27 = icmp sgt i64 %26, 0
  br i1 %27, label %28, label %29

28:                                               ; preds = %18
  br label %32

29:                                               ; preds = %18
  %30 = load i64, ptr %12, align 8, !tbaa !12
  %31 = trunc i64 %30 to i32
  br label %32

32:                                               ; preds = %29, %28
  %33 = phi i32 [ 1, %28 ], [ %31, %29 ]
  %34 = call i64 @BIO_debug_callback_ex(ptr noundef %19, i32 noundef %20, ptr noundef %21, i64 noundef %23, i32 noundef %24, i64 noundef %25, i32 noundef %33, ptr noundef %13)
  %35 = load i64, ptr %12, align 8, !tbaa !12
  call void @llvm.lifetime.end.p0(i64 8, ptr %13) #4
  ret i64 %35
}