; Function Attrs: nounwind uwtable
define noundef i64 @BIO_debug_callback(ptr noundef %0, i32 noundef %1, ptr noundef readonly captures(none) %2, i32 noundef %3, i64 noundef %4, i64 noundef returned %5) local_unnamed_addr #0 {
  %7 = alloca i64, align 8
  call void @llvm.lifetime.start.p0(i64 8, ptr nonnull %7) #6
  %8 = icmp sgt i64 %5, 0
  %spec.select = tail call i64 @llvm.smax.i64(i64 %5, i64 0)
  store i64 %spec.select, ptr %7, align 8, !tbaa !3
  %9 = sext i32 %3 to i64
  %10 = trunc i64 %5 to i32
  %11 = select i1 %8, i32 1, i32 %10
  %12 = call i64 @BIO_debug_callback_ex(ptr noundef %0, i32 noundef %1, ptr noundef %2, i64 noundef %9, i32 noundef %3, i64 poison, i32 noundef %11, ptr noundef nonnull %7)
  call void @llvm.lifetime.end.p0(i64 8, ptr nonnull %7) #6
  ret i64 %5
}